; Function Attrs: mustprogress uwtable
define hidden void @_ZN3nla15monomial_bounds9propagateEv(ptr nocapture noundef nonnull readonly align 8 dereferenceable(192) %this) local_unnamed_addr #3 align 2 {
entry:
  %0 = load ptr, ptr %this, align 8
  %m_to_refine = getelementptr inbounds i8, ptr %0, i64 288
  %m_elems.i = getelementptr inbounds i8, ptr %0, i64 296
  %1 = load ptr, ptr %m_elems.i, align 8
  %2 = load i32, ptr %m_to_refine, align 8
  %idx.ext.i = zext i32 %2 to i64
  %add.ptr.i = getelementptr inbounds i32, ptr %1, i64 %idx.ext.i
  %cmp.not5 = icmp eq i32 %2, 0
  br i1 %cmp.not5, label %for.end, label %for.body

for.body:                                         ; preds = %entry, %for.body
  %__begin1.06 = phi ptr [ %incdec.ptr, %for.body ], [ %1, %entry ]
  %3 = load i32, ptr %__begin1.06, align 4
  %4 = load ptr, ptr %this, align 8
  %m_monics.i.i = getelementptr inbounds i8, ptr %4, i64 4528
  %m_var2index.i.i = getelementptr inbounds i8, ptr %4, i64 4536
  %5 = load ptr, ptr %m_var2index.i.i, align 8
  %idxprom.i.i.i = zext i32 %3 to i64
  %arrayidx.i.i.i = getelementptr inbounds i32, ptr %5, i64 %idxprom.i.i.i
  %6 = load i32, ptr %arrayidx.i.i.i, align 4
  %7 = load ptr, ptr %m_monics.i.i, align 8
  %idxprom.i1.i.i = zext i32 %6 to i64
  %arrayidx.i2.i.i = getelementptr inbounds %"class.nla::monic", ptr %7, i64 %idxprom.i1.i.i
  %call6 = tail call noundef zeroext i1 @_ZN3nla15monomial_bounds9propagateERKNS_5monicE(ptr noundef nonnull align 8 dereferenceable(192) %this, ptr noundef nonnull align 8 dereferenceable(34) %arrayidx.i2.i.i)
  %call7 = tail call noundef zeroext i1 @_ZN3nla15monomial_bounds9add_lemmaEv(ptr noundef nonnull align 8 dereferenceable(192) %this)
  %incdec.ptr = getelementptr inbounds i8, ptr %__begin1.06, i64 4
  %cmp.not = icmp eq ptr %incdec.ptr, %add.ptr.i
  %or.cond = select i1 %call7, i1 true, i1 %cmp.not
  br i1 %or.cond, label %for.end, label %for.body

for.end:                                          ; preds = %for.body, %entry
  ret void
}